; Function Attrs: mustprogress nofree norecurse nosync nounwind willreturn memory(readwrite, inaccessiblemem: none) uwtable
define hidden void @_ZN16JvmtiThreadState22enter_interp_only_modeEv(ptr nocapture noundef nonnull align 8 dereferenceable(184) %0) local_unnamed_addr #4 align 2 {
  store i8 1, ptr @_ZN16JvmtiThreadState22_seen_interp_only_modeE, align 1
  %2 = load ptr, ptr %0, align 8
  %3 = getelementptr inbounds i8, ptr %2, i64 1544
  %4 = load i32, ptr %3, align 8
  %5 = add nsw i32 %4, 1
  store i32 %5, ptr %3, align 8
  %6 = getelementptr inbounds i8, ptr %0, i64 72
  store i32 -99, ptr %6, align 8
  ret void
}